(dp0
S'rectree_column_order'
p1
(dp2
sS'shophpaned1'
p3
(dp4
S'position'
p5
I400
ssS'shopGuiWin'
p6
(dp7
sS'sautTog'
p8
(dp9
S'active'
p10
I01
ssS'regexpTog'
p11
(dp12
g10
I00
ssS'rectree_hidden_columns'
p13
(lp14
S'Website'
p15
aS'Yield'
p16
aS'Yield Unit'
p17
aS'Preparation Time'
p18
aS'Cooking Time'
p19
asS'app_window'
p20
(dp21
g5
(I1668
I110
tp22
sS'window_size'
p23
(I1528
I1686
tp24
ssS'shopvpaned1'
p25
(dp26
g5
I150
ss.